target datalayout = "e-m:e-p270:32:32-p271:32:32-p272:64:64-i64:64-i128:128-f80:128-n8:16:32:64-S128"
target triple = "x86_64-pc-linux-gnu"

%struct.grep_pat = type { ptr, ptr, i32, i32, ptr, i64, i32, %struct.re_pattern_buffer, ptr, ptr, ptr, ptr, ptr, i32, i8 }
%struct.re_pattern_buffer = type { ptr, i64, i64, i64, ptr, ptr, i64, i8 }
%struct.grep_expr = type { i32, i32, %union.anon }
%union.anon = type { %struct.anon }
%struct.anon = type { ptr, ptr }

@.str.33 = private unnamed_addr constant [33 x i8] c"unmatched ( for expression group\00", align 1
@.str.37 = private unnamed_addr constant [41 x i8] c"--not not followed by pattern expression\00", align 1
@.str.38 = private unnamed_addr constant [41 x i8] c"--not followed by non pattern expression\00", align 1

; Function Attrs: nounwind uwtable
define internal ptr @compile_pattern_atom(ptr noundef %0) #0 {
  %2 = alloca ptr, align 8
  %3 = alloca ptr, align 8
  %4 = alloca ptr, align 8
  %5 = alloca ptr, align 8
  %6 = alloca i32, align 4
  store ptr %0, ptr %3, align 8, !tbaa !58
  call void @llvm.lifetime.start.p0(i64 8, ptr %4) #11
  call void @llvm.lifetime.start.p0(i64 8, ptr %5) #11
  %7 = load ptr, ptr %3, align 8, !tbaa !58
  %8 = load ptr, ptr %7, align 8, !tbaa !44
  store ptr %8, ptr %4, align 8, !tbaa !44
  %9 = load ptr, ptr %4, align 8, !tbaa !44
  %10 = icmp ne ptr %9, null
  br i1 %10, label %12, label %11

11:                                               ; preds = %1
  store ptr null, ptr %2, align 8
  store i32 1, ptr %6, align 4
  br label %53

12:                                               ; preds = %1
  %13 = load ptr, ptr %4, align 8, !tbaa !44
  %14 = getelementptr inbounds nuw %struct.grep_pat, ptr %13, i32 0, i32 3
  %15 = load i32, ptr %14, align 4, !tbaa !54
  switch i32 %15, label %52 [
    i32 0, label %16
    i32 1, label %16
    i32 2, label %16
    i32 4, label %28
  ]

16:                                               ; preds = %12, %12, %12
  %17 = call ptr @xcalloc(i64 noundef 1, i64 noundef 24)
  store ptr %17, ptr %5, align 8, !tbaa !62
  %18 = load ptr, ptr %5, align 8, !tbaa !62
  %19 = getelementptr inbounds nuw %struct.grep_expr, ptr %18, i32 0, i32 0
  store i32 0, ptr %19, align 8, !tbaa !76
  %20 = load ptr, ptr %4, align 8, !tbaa !44
  %21 = load ptr, ptr %5, align 8, !tbaa !62
  %22 = getelementptr inbounds nuw %struct.grep_expr, ptr %21, i32 0, i32 2
  store ptr %20, ptr %22, align 8, !tbaa !36
  %23 = load ptr, ptr %4, align 8, !tbaa !44
  %24 = getelementptr inbounds nuw %struct.grep_pat, ptr %23, i32 0, i32 0
  %25 = load ptr, ptr %24, align 8, !tbaa !59
  %26 = load ptr, ptr %3, align 8, !tbaa !58
  store ptr %25, ptr %26, align 8, !tbaa !44
  %27 = load ptr, ptr %5, align 8, !tbaa !62
  store ptr %27, ptr %2, align 8
  store i32 1, ptr %6, align 4
  br label %53

28:                                               ; preds = %12
  %29 = load ptr, ptr %4, align 8, !tbaa !44
  %30 = getelementptr inbounds nuw %struct.grep_pat, ptr %29, i32 0, i32 0
  %31 = load ptr, ptr %30, align 8, !tbaa !59
  %32 = load ptr, ptr %3, align 8, !tbaa !58
  store ptr %31, ptr %32, align 8, !tbaa !44
  %33 = load ptr, ptr %3, align 8, !tbaa !58
  %34 = call ptr @compile_pattern_or(ptr noundef %33)
  store ptr %34, ptr %5, align 8, !tbaa !62
  %35 = load ptr, ptr %3, align 8, !tbaa !58
  %36 = load ptr, ptr %35, align 8, !tbaa !44
  %37 = icmp ne ptr %36, null
  br i1 %37, label %38, label %44

38:                                               ; preds = %28
  %39 = load ptr, ptr %3, align 8, !tbaa !58
  %40 = load ptr, ptr %39, align 8, !tbaa !44
  %41 = getelementptr inbounds nuw %struct.grep_pat, ptr %40, i32 0, i32 3
  %42 = load i32, ptr %41, align 4, !tbaa !54
  %43 = icmp ne i32 %42, 5
  br i1 %43, label %44, label %45

44:                                               ; preds = %38, %28
  call void (ptr, ...) @die(ptr noundef @.str.33) #13
  unreachable

45:                                               ; preds = %38
  %46 = load ptr, ptr %3, align 8, !tbaa !58
  %47 = load ptr, ptr %46, align 8, !tbaa !44
  %48 = getelementptr inbounds nuw %struct.grep_pat, ptr %47, i32 0, i32 0
  %49 = load ptr, ptr %48, align 8, !tbaa !59
  %50 = load ptr, ptr %3, align 8, !tbaa !58
  store ptr %49, ptr %50, align 8, !tbaa !44
  %51 = load ptr, ptr %5, align 8, !tbaa !62
  store ptr %51, ptr %2, align 8
  store i32 1, ptr %6, align 4
  br label %53

52:                                               ; preds = %12
  store ptr null, ptr %2, align 8
  store i32 1, ptr %6, align 4
  br label %53

53:                                               ; preds = %52, %45, %16, %11
  call void @llvm.lifetime.end.p0(i64 8, ptr %5) #11
  call void @llvm.lifetime.end.p0(i64 8, ptr %4) #11
  %54 = load ptr, ptr %2, align 8
  ret ptr %54
}

; Function Attrs: nounwind uwtable
define internal ptr @grep_not_expr(ptr noundef %0) #0 {
  %2 = alloca ptr, align 8
  %3 = alloca ptr, align 8
  store ptr %0, ptr %2, align 8, !tbaa !62
  call void @llvm.lifetime.start.p0(i64 8, ptr %3) #11
  %4 = call ptr @xcalloc(i64 noundef 1, i64 noundef 24)
  store ptr %4, ptr %3, align 8, !tbaa !62
  %5 = load ptr, ptr %3, align 8, !tbaa !62
  %6 = getelementptr inbounds nuw %struct.grep_expr, ptr %5, i32 0, i32 0
  store i32 1, ptr %6, align 8, !tbaa !76
  %7 = load ptr, ptr %2, align 8, !tbaa !62
  %8 = load ptr, ptr %3, align 8, !tbaa !62
  %9 = getelementptr inbounds nuw %struct.grep_expr, ptr %8, i32 0, i32 2
  store ptr %7, ptr %9, align 8, !tbaa !36
  %10 = load ptr, ptr %3, align 8, !tbaa !62
  call void @llvm.lifetime.end.p0(i64 8, ptr %3) #11
  ret ptr %10
}

; Function Attrs: nounwind uwtable
define internal ptr @compile_pattern_not(ptr noundef %0) #0 {
  %2 = alloca ptr, align 8
  %3 = alloca ptr, align 8
  %4 = alloca ptr, align 8
  %5 = alloca ptr, align 8
  %6 = alloca i32, align 4
  store ptr %0, ptr %3, align 8, !tbaa !58
  call void @llvm.lifetime.start.p0(i64 8, ptr %4) #11
  call void @llvm.lifetime.start.p0(i64 8, ptr %5) #11
  %7 = load ptr, ptr %3, align 8, !tbaa !58
  %8 = load ptr, ptr %7, align 8, !tbaa !44
  store ptr %8, ptr %4, align 8, !tbaa !44
  %9 = load ptr, ptr %4, align 8, !tbaa !44
  %10 = icmp ne ptr %9, null
  br i1 %10, label %12, label %11

11:                                               ; preds = %1
  store ptr null, ptr %2, align 8
  store i32 1, ptr %6, align 4
  br label %38

12:                                               ; preds = %1
  %13 = load ptr, ptr %4, align 8, !tbaa !44
  %14 = getelementptr inbounds nuw %struct.grep_pat, ptr %13, i32 0, i32 3
  %15 = load i32, ptr %14, align 4, !tbaa !54
  switch i32 %15, label %35 [
    i32 6, label %16
  ]

16:                                               ; preds = %12
  %17 = load ptr, ptr %4, align 8, !tbaa !44
  %18 = getelementptr inbounds nuw %struct.grep_pat, ptr %17, i32 0, i32 0
  %19 = load ptr, ptr %18, align 8, !tbaa !59
  %20 = icmp ne ptr %19, null
  br i1 %20, label %22, label %21

21:                                               ; preds = %16
  call void (ptr, ...) @die(ptr noundef @.str.37) #13
  unreachable

22:                                               ; preds = %16
  %23 = load ptr, ptr %4, align 8, !tbaa !44
  %24 = getelementptr inbounds nuw %struct.grep_pat, ptr %23, i32 0, i32 0
  %25 = load ptr, ptr %24, align 8, !tbaa !59
  %26 = load ptr, ptr %3, align 8, !tbaa !58
  store ptr %25, ptr %26, align 8, !tbaa !44
  %27 = load ptr, ptr %3, align 8, !tbaa !58
  %28 = call ptr @compile_pattern_not(ptr noundef %27)
  store ptr %28, ptr %5, align 8, !tbaa !62
  %29 = load ptr, ptr %5, align 8, !tbaa !62
  %30 = icmp ne ptr %29, null
  br i1 %30, label %32, label %31

31:                                               ; preds = %22
  call void (ptr, ...) @die(ptr noundef @.str.38) #13
  unreachable

32:                                               ; preds = %22
  %33 = load ptr, ptr %5, align 8, !tbaa !62
  %34 = call ptr @grep_not_expr(ptr noundef %33)
  store ptr %34, ptr %2, align 8
  store i32 1, ptr %6, align 4
  br label %38

35:                                               ; preds = %12
  %36 = load ptr, ptr %3, align 8, !tbaa !58
  %37 = call ptr @compile_pattern_atom(ptr noundef %36)
  store ptr %37, ptr %2, align 8
  store i32 1, ptr %6, align 4
  br label %38

38:                                               ; preds = %35, %32, %11
  call void @llvm.lifetime.end.p0(i64 8, ptr %5) #11
  call void @llvm.lifetime.end.p0(i64 8, ptr %4) #11
  %39 = load ptr, ptr %2, align 8
  ret ptr %39
}