; Function Attrs: nounwind uwtable
define internal fastcc ptr @compile_pattern_not(ptr noundef nonnull captures(none) %0) unnamed_addr #0 {
  %2 = load ptr, ptr %0, align 8, !tbaa !43
  %.not = icmp eq ptr %2, null
  br i1 %.not, label %compile_pattern_atom.exit, label %3

3:                                                ; preds = %1
  %4 = getelementptr inbounds nuw i8, ptr %2, i64 20
  %5 = load i32, ptr %4, align 4, !tbaa !39
  switch i32 %5, label %compile_pattern_atom.exit [
    i32 6, label %6
    i32 0, label %15
    i32 1, label %15
    i32 2, label %15
    i32 4, label %19
  ]

6:                                                ; preds = %3
  %7 = load ptr, ptr %2, align 8, !tbaa !44
  %.not14 = icmp eq ptr %7, null
  br i1 %.not14, label %8, label %9

8:                                                ; preds = %6
  tail call void (ptr, ...) @die(ptr noundef nonnull @.str.37) #20
  unreachable

9:                                                ; preds = %6
  store ptr %7, ptr %0, align 8, !tbaa !43
  %10 = tail call fastcc ptr @compile_pattern_not(ptr noundef %0)
  %.not15 = icmp eq ptr %10, null
  br i1 %.not15, label %11, label %12

11:                                               ; preds = %9
  tail call void (ptr, ...) @die(ptr noundef nonnull @.str.38) #20
  unreachable

12:                                               ; preds = %9
  %13 = tail call noundef ptr @xcalloc(i64 noundef 1, i64 noundef 24) #18
  store i32 1, ptr %13, align 8, !tbaa !55
  %14 = getelementptr inbounds nuw i8, ptr %13, i64 8
  store ptr %10, ptr %14, align 8, !tbaa !23
  br label %compile_pattern_atom.exit

15:                                               ; preds = %3, %3, %3
  %16 = tail call ptr @xcalloc(i64 noundef 1, i64 noundef 24) #18
  store i32 0, ptr %16, align 8, !tbaa !55
  %17 = getelementptr inbounds nuw i8, ptr %16, i64 8
  store ptr %2, ptr %17, align 8, !tbaa !23
  %18 = load ptr, ptr %2, align 8, !tbaa !44
  store ptr %18, ptr %0, align 8, !tbaa !43
  br label %compile_pattern_atom.exit

19:                                               ; preds = %3
  %20 = load ptr, ptr %2, align 8, !tbaa !44
  store ptr %20, ptr %0, align 8, !tbaa !43
  %21 = tail call fastcc ptr @compile_pattern_or(ptr noundef nonnull %0)
  %22 = load ptr, ptr %0, align 8, !tbaa !43
  %.not20.i = icmp eq ptr %22, null
  br i1 %.not20.i, label %26, label %23

23:                                               ; preds = %19
  %24 = getelementptr inbounds nuw i8, ptr %22, i64 20
  %25 = load i32, ptr %24, align 4, !tbaa !39
  %.not21.i = icmp eq i32 %25, 5
  br i1 %.not21.i, label %27, label %26

26:                                               ; preds = %23, %19
  tail call void (ptr, ...) @die(ptr noundef nonnull @.str.33) #20
  unreachable

27:                                               ; preds = %23
  %28 = load ptr, ptr %22, align 8, !tbaa !44
  store ptr %28, ptr %0, align 8, !tbaa !43
  br label %compile_pattern_atom.exit

compile_pattern_atom.exit:                        ; preds = %3, %27, %15, %1, %12
  %.0 = phi ptr [ %13, %12 ], [ null, %1 ], [ %21, %27 ], [ %16, %15 ], [ null, %3 ]
  ret ptr %.0
}